; Function Attrs: mustprogress nounwind uwtable
define hidden void @_ZN12LinkResolver20resolve_virtual_callER8CallInfo6HandleP5KlassRK8LinkInfobP10JavaThread(ptr noundef nonnull align 8 dereferenceable(64) %0, ptr %1, ptr noundef %2, ptr nocapture noundef nonnull readonly align 8 dereferenceable(51) %3, i1 noundef zeroext %4, ptr noundef %5) local_unnamed_addr #0 align 2 {
  %7 = alloca %class.methodHandle, align 8
  %8 = tail call noundef ptr @_ZN12LinkResolver31linktime_resolve_virtual_methodERK8LinkInfoP10JavaThread(ptr noundef nonnull align 8 dereferenceable(51) %3, ptr noundef %5)
  %9 = getelementptr inbounds i8, ptr %5, i64 8
  %10 = load ptr, ptr %9, align 8
  %.not = icmp eq ptr %10, null
  br i1 %.not, label %11, label %38

11:                                               ; preds = %6
  store ptr %8, ptr %7, align 8
  %12 = getelementptr inbounds i8, ptr %7, i64 8
  store ptr %5, ptr %12, align 8
  %.not.i = icmp eq ptr %8, null
  br i1 %.not.i, label %_ZN12methodHandleC2EP6ThreadP6Method.exit, label %13

13:                                               ; preds = %11
  %14 = getelementptr inbounds i8, ptr %5, i64 816
  %15 = load ptr, ptr %14, align 8
  %16 = load i32, ptr %15, align 8
  %17 = getelementptr inbounds i8, ptr %15, i64 4
  %18 = load i32, ptr %17, align 4
  %19 = icmp eq i32 %16, %18
  br i1 %19, label %20, label %_ZN26GrowableArrayWithAllocatorIP8Metadata13GrowableArrayIS1_EE4pushERKS1_.exit.i

20:                                               ; preds = %13
  %21 = add nsw i32 %16, 1
  %22 = icmp sgt i32 %16, -1
  %23 = xor i32 %16, -2147483648
  %24 = and i32 %23, %21
  %25 = icmp eq i32 %24, 0
  %26 = and i1 %22, %25
  %27 = tail call range(i32 0, 33) i32 @llvm.ctlz.i32(i32 %21, i1 true)
  %28 = sub nuw nsw i32 32, %27
  %29 = shl nuw i32 1, %28
  %.0.i.i.i.i.i.i = select i1 %26, i32 %21, i32 %29
  tail call void @_ZN26GrowableArrayWithAllocatorIP8Metadata13GrowableArrayIS1_EE9expand_toEi(ptr noundef nonnull align 8 dereferenceable(16) %15, i32 noundef %.0.i.i.i.i.i.i)
  %.pre.i.i.i = load i32, ptr %15, align 8
  br label %_ZN26GrowableArrayWithAllocatorIP8Metadata13GrowableArrayIS1_EE4pushERKS1_.exit.i

_ZN26GrowableArrayWithAllocatorIP8Metadata13GrowableArrayIS1_EE4pushERKS1_.exit.i: ; preds = %20, %13
  %30 = phi i32 [ %.pre.i.i.i, %20 ], [ %16, %13 ]
  %31 = add nsw i32 %30, 1
  store i32 %31, ptr %15, align 8
  %32 = getelementptr inbounds i8, ptr %15, i64 8
  %33 = load ptr, ptr %32, align 8
  %34 = sext i32 %30 to i64
  %35 = getelementptr inbounds ptr, ptr %33, i64 %34
  store ptr %8, ptr %35, align 8
  br label %_ZN12methodHandleC2EP6ThreadP6Method.exit

_ZN12methodHandleC2EP6ThreadP6Method.exit:        ; preds = %11, %_ZN26GrowableArrayWithAllocatorIP8Metadata13GrowableArrayIS1_EE4pushERKS1_.exit.i
  %36 = getelementptr inbounds i8, ptr %3, i64 16
  %37 = load ptr, ptr %36, align 8
  call void @_ZN12LinkResolver30runtime_resolve_virtual_methodER8CallInfoRK12methodHandleP5Klass6HandleS6_bbP10JavaThread(ptr noundef nonnull align 8 dereferenceable(64) %0, ptr noundef nonnull align 8 dereferenceable(16) %7, ptr noundef %37, ptr %1, ptr noundef %2, i1 noundef zeroext %4, i1 noundef zeroext false, ptr noundef nonnull %5)
  call void @_ZN12methodHandleD1Ev(ptr noundef nonnull align 8 dereferenceable(16) %7) #10
  br label %38

38:                                               ; preds = %_ZN12methodHandleC2EP6ThreadP6Method.exit, %6
  ret void
}